(dp1
S'cutoff'
p2
F1
sS'pretrained_word_embeddings_file'
p3
S'./tests_cn/data/MT_WordEmb.pkl'
p4
sS'time_stop'
p5
I5
sS'qdim_decoder'
p6
I5
sS'idim'
p7
I73
sS'pause_sym'
p8
I9
sS'decoder_drop_previous_input_tokens'
p9
I00
sS'test_dialogues'
p10
S'./Prepare_Data_CN/pkl_data/test_demo.dialogues.pkl'
p11
sS'condition_latent_variable_on_dialogue_encoder'
p12
I00
sS'patience'
p13
I20
sS'prefix'
p14
S'testmodel_'
p15
sS'seed'
p16
I1234
sS'second_speaker_sym'
p17
I4
sS'sort_k_batches'
p18
I1
sS'valid_dialogues'
p19
S'./Prepare_Data_CN/pkl_data/valid_demo.dialogues.pkl'
p20
sS'deep_dialogue_input'
p21
I01
sS'unk_sym'
p22
I0
sS'collaps_to_standard_rnn'
p23
I00
sS'train_latent_gaussians_with_kl_divergence_annealing'
p24
I00
sS'utterance_encoder_gating'
p25
S'GRU'
p26
sS'decoder_drop_previous_input_tokens_rate'
p27
F0.75
sS'condition_latent_variable_on_dcgm_encoder'
p28
I00
sS'direct_connection_between_encoders_and_decoder'
p29
I01
sS'dialogue_encoder_gating'
p30
g26
sS'train_freq'
p31
I10
sS'run_id'
p32
S'1491982831.42'
p33
sS'off_screen_sym'
p34
I8
sS'latent_gaussian_linear_dynamics'
p35
I00
sS'deep_out'
p36
I01
sS'qdim_encoder'
p37
I15
sS'sdim'
p38
I10
sS'lr'
p39
F0.00020000000000000001
sS'first_speaker_sym'
p40
I3
sS'utterance_decoder_gating'
p41
g26
sS'minor_speaker_sym'
p42
I6
sS'maxout_out'
p43
I00
sS'max_grad_steps'
p44
I20
sS'end_sym_utterance'
p45
S'<sss>'
p46
sS'rankdim'
p47
I10
sS'scale_latent_variable_variances'
p48
I10
sS'latent_gaussian_per_utterance_dim'
p49
I10
sS'dialogue_rec_activation'
p50
S'lambda x: T.tanh(x)'
p51
sS'dictionary'
p52
S'./Prepare_Data_CN/pkl_data/train_demo.dict.pkl'
p53
sS'fix_encoder_parameters'
p54
I00
sS'valid_freq'
p55
I50
sS'bidirectional_utterance_encoder'
p56
I01
sS'bs'
p57
I5
sS'reset_utterance_decoder_at_end_of_utterance'
p58
I01
sS'minerr'
p59
I-1
sS'save_dir'
p60
S'./Prepare_Data_CN/models/'
p61
sS'oov'
p62
S'<unk>'
p63
sS'condition_decoder_only_on_latent_variable'
p64
I00
sS'kl_divergence_annealing_rate'
p65
F1.6666666666666667e-05
sS'voice_over_sym'
p66
I7
sS'train_dialogues'
p67
S'./Prepare_Data_CN/pkl_data/train_demo.dialogues.pkl'
p68
sS'decoder_bias_type'
p69
S'all'
p70
sS'reset_utterance_encoder_at_end_of_utterance'
p71
I01
sS'loop_iters'
p72
I200
sS'eos_sym'
p73
I1
sS'fix_pretrained_word_embeddings'
p74
I00
sS'level'
p75
S'DEBUG'
p76
sS'use_nce'
p77
I00
sS'initialize_from_pretrained_word_embeddings'
p78
I00
sS'cost_threshold'
p79
F1.0029999999999999
sS'third_speaker_sym'
p80
I5
sS'deep_direct_connection'
p81
I00
sS'sent_rec_activation'
p82
g51
sS'updater'
p83
S'adam'
p84
sS'eod_sym'
p85
I2
sS'add_latent_gaussian_per_utterance'
p86
I00
sS'reset_hidden_states_between_subsequences'
p87
I00
s.